target datalayout = "e-m:e-p270:32:32-p271:32:32-p272:64:64-i64:64-i128:128-f80:128-n8:16:32:64-S128"
target triple = "x86_64-pc-linux-gnu"

%struct._php_stream_wrapper = type { ptr, ptr, i32 }

@zend_compile_file = external global ptr, align 8
@phar_orig_compile_file = hidden global ptr null, align 8
@zend_resolve_path = external global ptr, align 8
@phar_save_resolve_path = internal global ptr null, align 8
@.str.120 = private unnamed_addr constant [5 x i8] c"phar\00", align 1
@php_stream_phar_wrapper = external constant %struct._php_stream_wrapper, align 8

; Function Attrs: nounwind uwtable
define hidden i32 @zm_startup_phar(i32 noundef %0, i32 noundef %1) #0 {
  %3 = alloca i32, align 4
  %4 = alloca i32, align 4
  store i32 %0, ptr %3, align 4
  store i32 %1, ptr %4, align 4
  %5 = load i32, ptr %4, align 4
  %6 = load i32, ptr %3, align 4
  %7 = call i32 @zend_register_ini_entries_ex(ptr noundef @ini_entries, i32 noundef %5, i32 noundef %6)
  %8 = load ptr, ptr @zend_compile_file, align 8
  store ptr %8, ptr @phar_orig_compile_file, align 8
  store ptr @phar_compile_file, ptr @zend_compile_file, align 8
  %9 = load ptr, ptr @zend_resolve_path, align 8
  store ptr %9, ptr @phar_save_resolve_path, align 8
  store ptr @phar_resolve_path, ptr @zend_resolve_path, align 8
  call void @phar_object_init()
  call void @phar_intercept_functions_init()
  call void @phar_save_orig_functions()
  %10 = call i32 @php_register_url_stream_wrapper(ptr noundef @.str.120, ptr noundef @php_stream_phar_wrapper)
  ret i32 %10
}