; Function Attrs: nounwind uwtable
define hidden i32 @zm_startup_phar(i32 noundef %0, i32 noundef %1) #0 {
  %3 = tail call i32 @zend_register_ini_entries_ex(ptr noundef nonnull @ini_entries, i32 noundef %1, i32 noundef %0) #23
  %4 = load ptr, ptr @zend_compile_file, align 8
  store ptr %4, ptr @phar_orig_compile_file, align 8
  store ptr @phar_compile_file, ptr @zend_compile_file, align 8
  %5 = load ptr, ptr @zend_resolve_path, align 8
  store ptr %5, ptr @phar_save_resolve_path, align 8
  store ptr @phar_resolve_path, ptr @zend_resolve_path, align 8
  tail call void @phar_object_init() #23
  tail call void @phar_intercept_functions_init() #23
  tail call void @phar_save_orig_functions() #23
  %6 = tail call i32 @php_register_url_stream_wrapper(ptr noundef nonnull @.str.120, ptr noundef nonnull @php_stream_phar_wrapper) #23
  ret i32 %6
}